(dp1
S'files'
p2
(dp3
S'janitoo_runner'
p4
(dp5
S'index'
p6
(dp7
S'html_filename'
p8
S'janitoo_runner.html'
p9
sS'name'
p10
S'janitoo.runner'
p11
sS'nums'
p12
ccopy_reg
_reconstructor
p13
(ccoverage.results
Numbers
p14
c__builtin__
object
p15
NtRp16
(dp17
S'n_files'
p18
I1
sS'n_branches'
p19
I0
sS'n_statements'
p20
I215
sS'n_excluded'
p21
I0
sS'n_partial_branches'
p22
I0
sS'n_missing'
p23
I134
sS'n_missing_branches'
p24
I0
sbssS'hash'
p25
S'\xb8W\xd5\xa7b,R\xca\xfd3\xb9\x07\x83uy('
p26
ssS'janitoo_value_factory_action'
p27
(dp28
g6
(dp29
S'html_filename'
p30
S'janitoo_value_factory_action.html'
p31
sS'name'
p32
S'janitoo.value_factory.action'
p33
sS'nums'
p34
g13
(g14
g15
NtRp35
(dp36
g18
I1
sg19
I0
sg20
I65
sg21
I0
sg22
I0
sg23
I8
sg24
I0
sbssg25
S'\xf7HI\x16\\S\xf2\x1bP\xe6|q\x1f\xd7\xd7\xee'
p37
ssS'janitoo_roomba_server'
p38
(dp39
g6
(dp40
S'html_filename'
p41
S'janitoo_roomba_server.html'
p42
sS'name'
p43
S'janitoo_roomba.server'
p44
sS'nums'
p45
g13
(g14
g15
NtRp46
(dp47
g18
I1
sg19
I0
sg20
I17
sg21
I0
sg22
I0
sg23
I3
sg24
I0
sbssg25
S'\x19\x13\x1c\xb5P\xf3\xa2m\xcd\xb9]\xf8\r\x18\xe9\xbd'
p48
ssS'janitoo_roomba_roomba'
p49
(dp50
g6
(dp51
g8
S'janitoo_roomba_roomba.html'
p52
sg10
S'janitoo_roomba.roomba'
p53
sg12
g13
(g14
g15
NtRp54
(dp55
g18
I1
sg19
I0
sg20
I178
sg21
I0
sg22
I0
sg23
I37
sg24
I0
sbssg25
S"-\xf3b\x01\x96\xe4'%X\x1c\xd8\xeaI\xdb\xa1\x9f"
p56
ssS'janitoo_server'
p57
(dp58
g6
(dp59
g30
S'janitoo_server.html'
p60
sg32
S'janitoo.server'
p61
sg34
g13
(g14
g15
NtRp62
(dp63
g18
I1
sg19
I0
sg20
I285
sg21
I0
sg22
I0
sg23
I151
sg24
I0
sbssg25
S'\xa0\x07\xc8\xa2\x92\xdd\x1b\x1e\xb3NA\x92\xff\xe7\xbd\x8e'
p64
ssS'janitoo_value_factory_config'
p65
(dp66
g6
(dp67
g30
S'janitoo_value_factory_config.html'
p68
sg32
S'janitoo.value_factory.config'
p69
sg34
g13
(g14
g15
NtRp70
(dp71
g18
I1
sg19
I0
sg20
I146
sg21
I0
sg22
I0
sg23
I64
sg24
I0
sbssg25
S'\x01\xe2\xcb\xaf\xc3Z\x94\xbc\x04\xcc[\x7f\xed\xeaw1'
p72
ssS'janitoo_roomba'
p73
(dp74
g6
(dp75
g41
S'janitoo_roomba.html'
p76
sg43
g73
sg45
g13
(g14
g15
NtRp77
(dp78
g18
I1
sg19
I0
sg20
I4
sg21
I5
sg22
I0
sg23
I0
sg24
I0
sbssg25
S'\x0f\xb7IHR\xb8@\x07?<\xafW\x1c\xe3\x91}'
p79
ssS'janitoo_dhcp'
p80
(dp81
g6
(dp82
g30
S'janitoo_dhcp.html'
p83
sg32
S'janitoo.dhcp'
p84
sg34
g13
(g14
g15
NtRp85
(dp86
g18
I1
sg19
I0
sg20
I1296
sg21
I0
sg22
I0
sg23
I1053
sg24
I0
sbssg25
S'\xa9\x90\xbb]\xa9\xf5\xa9\xef\x90\xben\xeb\xe7\x83w\r'
p87
ssS'janitoo_threads_scenes'
p88
(dp89
g6
(dp90
g41
S'janitoo_threads_scenes.html'
p91
sg43
S'janitoo.threads.scenes'
p92
sg45
g13
(g14
g15
NtRp93
(dp94
g18
I1
sg19
I0
sg20
I100
sg21
I7
sg22
I0
sg23
I51
sg24
I0
sbssg25
S'@\x86&\xbdbC\x8be\xdc\x9a\xe6\x980{\x85\x1e'
p95
ssS'janitoo_mqtt'
p96
(dp97
g6
(dp98
g30
S'janitoo_mqtt.html'
p99
sg32
S'janitoo.mqtt'
p100
sg34
g13
(g14
g15
NtRp101
(dp102
g18
I1
sg19
I0
sg20
I103
sg21
I0
sg22
I0
sg23
I19
sg24
I0
sbssg25
S'\xce\x02\xadh\xf4\xc0s\xdf\x01\xb7B\xfas\xdbs#'
p103
ssS'janitoo_bus'
p104
(dp105
g6
(dp106
g30
S'janitoo_bus.html'
p107
sg32
S'janitoo.bus'
p108
sg34
g13
(g14
g15
NtRp109
(dp110
g18
I1
sg19
I0
sg20
I62
sg21
I0
sg22
I0
sg23
I5
sg24
I0
sbssg25
S'\xbc\x1a`\x1a\x89/\xd9\x19\xcc\x0bI\xaek\xf0!\xcc'
p111
ssS'janitoo_component'
p112
(dp113
g6
(dp114
g30
S'janitoo_component.html'
p115
sg32
S'janitoo.component'
p116
sg34
g13
(g14
g15
NtRp117
(dp118
g18
I1
sg19
I0
sg20
I69
sg21
I0
sg22
I0
sg23
I16
sg24
I0
sbssg25
S'\x06?!%\x97u\x02|\x01\x132\xf2\xb6\xa5\xc0\xed'
p119
ssS'janitoo_value'
p120
(dp121
g6
(dp122
g41
S'janitoo_value.html'
p123
sg43
S'janitoo.value'
p124
sg45
g13
(g14
g15
NtRp125
(dp126
g18
I1
sg19
I0
sg20
I82
sg21
I7
sg22
I0
sg23
I11
sg24
I0
sbssg25
S'\x84#xRA\xa7\x9e\xc5\x16\xff\xe7\xf5\xd1o\xfb\xa3'
p127
ssS'janitoo_utils'
p128
(dp129
g6
(dp130
g30
S'janitoo_utils.html'
p131
sg32
S'janitoo.utils'
p132
sg34
g13
(g14
g15
NtRp133
(dp134
g18
I1
sg19
I0
sg20
I68
sg21
I0
sg22
I0
sg23
I18
sg24
I0
sbssg25
S't\xfb\xa0\x8e\xc4\x8f\xb4\xf5\xdf[\x15GZs\x1f$'
p135
ssS'janitoo'
p136
(dp137
g6
(dp138
g41
S'janitoo.html'
p139
sg43
g136
sg45
g13
(g14
g15
NtRp140
(dp141
g18
I1
sg19
I0
sg20
I4
sg21
I5
sg22
I0
sg23
I0
sg24
I0
sbssg25
S'\x15\x85\x86\xf0\x7f\x99\x10\x01\xe39\xa6\xa5c\xd5\xf9\xfd'
p142
ssS'janitoo_threads_http'
p143
(dp144
g6
(dp145
g8
S'janitoo_threads_http.html'
p146
sg10
S'janitoo.threads.http'
p147
sg12
g13
(g14
g15
NtRp148
(dp149
g18
I1
sg19
I0
sg20
I247
sg21
I0
sg22
I0
sg23
I156
sg24
I0
sbssg25
S'z\xae\xdb4P\x9b\xc0\x80\xa6\x91\xecU\xdc\x13@('
p150
ssS'janitoo_threads'
p151
(dp152
g6
(dp153
g41
S'janitoo_threads.html'
p154
sg43
S'janitoo.threads'
p155
sg45
g13
(g14
g15
NtRp156
(dp157
g18
I1
sg19
I0
sg20
I4
sg21
I5
sg22
I0
sg23
I0
sg24
I0
sbssg25
S'\x15\x85\x86\xf0\x7f\x99\x10\x01\xe39\xa6\xa5c\xd5\xf9\xfd'
p158
ssS'janitoo_value_factory'
p159
(dp160
g6
(dp161
g8
S'janitoo_value_factory.html'
p162
sg10
S'janitoo.value_factory'
p163
sg12
g13
(g14
g15
NtRp164
(dp165
g18
I1
sg19
I0
sg20
I219
sg21
I0
sg22
I0
sg23
I89
sg24
I0
sbssg25
S'\xc9\xcd\xf4\xb2|\xeb_\x96\xf5\x94{\xe3lL\xcf\x9d'
p166
ssS'janitoo_classes'
p167
(dp168
g6
(dp169
g8
S'janitoo_classes.html'
p170
sg10
S'janitoo.classes'
p171
sg12
g13
(g14
g15
NtRp172
(dp173
g18
I1
sg19
I0
sg20
I9
sg21
I0
sg22
I0
sg23
I0
sg24
I0
sbssg25
S'\xf0:\xbf4\x8a7#\x94\xe3\x8d\x83jh1\x14\x8b'
p174
ssS'janitoo_threads_email'
p175
(dp176
g6
(dp177
g41
S'janitoo_threads_email.html'
p178
sg43
S'janitoo.threads.email'
p179
sg45
g13
(g14
g15
NtRp180
(dp181
g18
I1
sg19
I0
sg20
I26
sg21
I7
sg22
I0
sg23
I3
sg24
I0
sbssg25
S'T\xf3\xc9(\x8b\x14,\xa4K\x9c(\xf1\x1b07%'
p182
ssS'janitoo_node'
p183
(dp184
g6
(dp185
g30
S'janitoo_node.html'
p186
sg32
S'janitoo.node'
p187
sg34
g13
(g14
g15
NtRp188
(dp189
g18
I1
sg19
I0
sg20
I952
sg21
I0
sg22
I0
sg23
I179
sg24
I0
sbssg25
S'\xd3\xc7Q\x9f\x90\x81\xf6\xcc\xa5`)\xc95"\xd9\x12'
p190
ssS'janitoo_value_factory_other'
p191
(dp192
g6
(dp193
g30
S'janitoo_value_factory_other.html'
p194
sg32
S'janitoo.value_factory.other'
p195
sg34
g13
(g14
g15
NtRp196
(dp197
g18
I1
sg19
I0
sg20
I52
sg21
I0
sg22
I0
sg23
I4
sg24
I0
sbssg25
S'Hkk\xf9+\xda\x0c\x08\xf5X\xf1\x8a,,\xe1\xde'
p198
ssS'janitoo_thread'
p199
(dp200
g6
(dp201
g30
S'janitoo_thread.html'
p202
sg32
S'janitoo.thread'
p203
sg34
g13
(g14
g15
NtRp204
(dp205
g18
I1
sg19
I0
sg20
I129
sg21
I0
sg22
I0
sg23
I14
sg24
I0
sbssg25
S'\xc9Y\xb3\xfc\xd7\xcd\xc1\xa4[\n!tU\xbb\xf3\xd4'
p206
ssS'janitoo_value_factory_sensor'
p207
(dp208
g6
(dp209
g30
S'janitoo_value_factory_sensor.html'
p210
sg32
S'janitoo.value_factory.sensor'
p211
sg34
g13
(g14
g15
NtRp212
(dp213
g18
I1
sg19
I0
sg20
I144
sg21
I0
sg22
I0
sg23
I21
sg24
I0
sbssg25
S'Rg5\xe6h\x99\x86}P\x1a\xc31\xb2\xc9\xbd\x1b'
p214
ssS'janitoo_options'
p215
(dp216
g6
(dp217
g30
S'janitoo_options.html'
p218
sg32
S'janitoo.options'
p219
sg34
g13
(g14
g15
NtRp220
(dp221
g18
I1
sg19
I0
sg20
I153
sg21
I0
sg22
I0
sg23
I71
sg24
I0
sbssg25
S'!y\xc0+\x19\xf9\x8d\xace\xb5\x1fg\x12=Q\xce'
p222
sssS'version'
p223
S'3.7.1'
p224
sS'settings'
p225
S'\xe4FS\x89]U -\\\xb2\x8e\xe7"\xbc\xa9\x89'
p226
sS'format'
p227
I1
s.